; Function Attrs: nounwind uwtable
define i32 @Pdr_ObjSatVar(ptr noundef readonly captures(none) %0, i32 noundef %1, i32 noundef %2, ptr noundef readonly captures(none) %3) local_unnamed_addr #0 {
  %5 = load ptr, ptr %0, align 8, !tbaa !68
  %6 = getelementptr inbounds nuw i8, ptr %5, i64 40
  %7 = load i32, ptr %6, align 8, !tbaa !69
  %.not = icmp eq i32 %7, 0
  br i1 %.not, label %15, label %8

8:                                                ; preds = %4
  %9 = getelementptr i8, ptr %0, i64 32
  %.val = load ptr, ptr %9, align 8, !tbaa !71
  %10 = getelementptr i8, ptr %3, i64 36
  %.val8 = load i32, ptr %10, align 4, !tbaa !24
  %11 = getelementptr i8, ptr %.val, i64 32
  %.val.val = load ptr, ptr %11, align 8, !tbaa !72
  %12 = sext i32 %.val8 to i64
  %13 = getelementptr inbounds i32, ptr %.val.val, i64 %12
  %14 = load i32, ptr %13, align 4, !tbaa !31
  br label %17

15:                                               ; preds = %4
  %16 = tail call i32 @Pdr_ObjSatVar2(ptr noundef nonnull %0, i32 noundef %1, ptr noundef %3, i32 noundef 0, i32 noundef %2)
  br label %17

17:                                               ; preds = %15, %8
  %.0 = phi i32 [ %14, %8 ], [ %16, %15 ]
  ret i32 %.0
}